#include <math.h>
#include <stdio.h>
#include <stdlib.h>
#include <string.h>

int main(){
	int i,sim=0;
	double n;
	char one[501],two[501];
	scanf("%lf",&n);
	scanf("%s",one);
	scanf("%s",two);
	if(strlen(one)!=strlen(two)){
		printf("error\n");
		return 0;
	}
	for(i=0;one[i];i++){
		if((one[i]!='A')&&(one[i]!='T')&&(one[i]!='C')&&(one[i]!='G')){
			printf("error\n");
			return 0;
		}
	}
	for(i=0;two[i];i++){
			if(two[i]!='A'&&two[i]!='T'&&two[i]!='C'&&two[i]!='G'){
			printf("error\n");
			return 0;
			}
	}
	for(i=0;one[i];i++){
		if(one[i]==two[i]){
			sim++;
		}
	}
	if(1.0*sim/strlen(one)>n){
		printf("yes\n");
	}
	else{
		printf("no\n");
	}
return 0;
}