; ModuleID = 'source-C-CXX/4/660.c'
source_filename = "source-C-CXX/4/660.c"
target datalayout = "e-m:e-p270:32:32-p271:32:32-p272:64:64-i64:64-f80:128-n8:16:32:64-S128"
target triple = "x86_64-pc-linux-gnu"

@.str = private unnamed_addr constant [4 x i8] c"%lf\00", align 1
@.str.1 = private unnamed_addr constant [3 x i8] c"%s\00", align 1
@str = private unnamed_addr constant [3 x i8] c"no\00", align 1
@str.5 = private unnamed_addr constant [4 x i8] c"yes\00", align 1
@str.8 = private unnamed_addr constant [6 x i8] c"error\00", align 1

; Function Attrs: nofree nounwind sspstrong uwtable
define dso_local i32 @main() local_unnamed_addr #0 {
  %1 = alloca double, align 8
  %2 = alloca [501 x i8], align 16
  %3 = alloca [501 x i8], align 16
  %4 = bitcast double* %1 to i8*
  call void @llvm.lifetime.start.p0i8(i64 8, i8* nonnull %4) #5
  %5 = getelementptr inbounds [501 x i8], [501 x i8]* %2, i64 0, i64 0
  call void @llvm.lifetime.start.p0i8(i64 501, i8* nonnull %5) #5
  %6 = getelementptr inbounds [501 x i8], [501 x i8]* %3, i64 0, i64 0
  call void @llvm.lifetime.start.p0i8(i64 501, i8* nonnull %6) #5
  %7 = call i32 (i8*, ...) @__isoc99_scanf(i8* getelementptr inbounds ([4 x i8], [4 x i8]* @.str, i64 0, i64 0), double* nonnull %1)
  %8 = call i32 (i8*, ...) @__isoc99_scanf(i8* getelementptr inbounds ([3 x i8], [3 x i8]* @.str.1, i64 0, i64 0), i8* nonnull %5)
  %9 = call i32 (i8*, ...) @__isoc99_scanf(i8* getelementptr inbounds ([3 x i8], [3 x i8]* @.str.1, i64 0, i64 0), i8* nonnull %6)
  %10 = call i64 @strlen(i8* noundef nonnull %5) #6
  %11 = call i64 @strlen(i8* noundef nonnull %6) #6
  %12 = icmp eq i64 %10, %11
  br i1 %12, label %13, label %50

13:                                               ; preds = %0, %17
  %14 = phi i64 [ %18, %17 ], [ 0, %0 ]
  %15 = getelementptr inbounds [501 x i8], [501 x i8]* %2, i64 0, i64 %14
  %16 = load i8, i8* %15, align 1, !tbaa !5
  switch i8 %16, label %50 [
    i8 0, label %19
    i8 65, label %17
    i8 84, label %17
    i8 67, label %17
    i8 71, label %17
  ]

17:                                               ; preds = %13, %13, %13, %13
  %18 = add nuw i64 %14, 1
  br label %13, !llvm.loop !8

19:                                               ; preds = %13, %26
  %20 = phi i64 [ %27, %26 ], [ 0, %13 ]
  %21 = getelementptr inbounds [501 x i8], [501 x i8]* %3, i64 0, i64 %20
  %22 = load i8, i8* %21, align 1, !tbaa !5
  switch i8 %22, label %50 [
    i8 0, label %23
    i8 65, label %26
    i8 84, label %26
    i8 67, label %26
    i8 71, label %26
  ]

23:                                               ; preds = %19
  %24 = load i8, i8* %5, align 16, !tbaa !5
  %25 = icmp eq i8 %24, 0
  br i1 %25, label %43, label %28

26:                                               ; preds = %19, %19, %19, %19
  %27 = add nuw i64 %20, 1
  br label %19, !llvm.loop !10

28:                                               ; preds = %23, %28
  %29 = phi i64 [ %37, %28 ], [ 0, %23 ]
  %30 = phi i8 [ %39, %28 ], [ %24, %23 ]
  %31 = phi i32 [ %36, %28 ], [ 0, %23 ]
  %32 = getelementptr inbounds [501 x i8], [501 x i8]* %3, i64 0, i64 %29
  %33 = load i8, i8* %32, align 1, !tbaa !5
  %34 = icmp eq i8 %30, %33
  %35 = zext i1 %34 to i32
  %36 = add nuw nsw i32 %31, %35
  %37 = add nuw nsw i64 %29, 1
  %38 = getelementptr inbounds [501 x i8], [501 x i8]* %2, i64 0, i64 %37
  %39 = load i8, i8* %38, align 1, !tbaa !5
  %40 = icmp eq i8 %39, 0
  br i1 %40, label %41, label %28, !llvm.loop !11

41:                                               ; preds = %28
  %42 = sitofp i32 %36 to double
  br label %43

43:                                               ; preds = %41, %23
  %44 = phi double [ 0.000000e+00, %23 ], [ %42, %41 ]
  %45 = uitofp i64 %10 to double
  %46 = fdiv double %44, %45
  %47 = load double, double* %1, align 8, !tbaa !12
  %48 = fcmp ogt double %46, %47
  %49 = select i1 %48, i8* getelementptr inbounds ([4 x i8], [4 x i8]* @str.5, i64 0, i64 0), i8* getelementptr inbounds ([3 x i8], [3 x i8]* @str, i64 0, i64 0)
  br label %50

50:                                               ; preds = %13, %19, %43, %0
  %51 = phi i8* [ getelementptr inbounds ([6 x i8], [6 x i8]* @str.8, i64 0, i64 0), %0 ], [ %49, %43 ], [ getelementptr inbounds ([6 x i8], [6 x i8]* @str.8, i64 0, i64 0), %19 ], [ getelementptr inbounds ([6 x i8], [6 x i8]* @str.8, i64 0, i64 0), %13 ]
  %52 = call i32 @puts(i8* nonnull dereferenceable(1) %51)
  call void @llvm.lifetime.end.p0i8(i64 501, i8* nonnull %6) #5
  call void @llvm.lifetime.end.p0i8(i64 501, i8* nonnull %5) #5
  call void @llvm.lifetime.end.p0i8(i64 8, i8* nonnull %4) #5
  ret i32 0
}

; Function Attrs: argmemonly mustprogress nofree nosync nounwind willreturn
declare void @llvm.lifetime.start.p0i8(i64 immarg, i8* nocapture) #1

; Function Attrs: nofree nounwind
declare noundef i32 @__isoc99_scanf(i8* nocapture noundef readonly, ...) local_unnamed_addr #2

; Function Attrs: argmemonly mustprogress nofree nounwind readonly willreturn
declare i64 @strlen(i8* nocapture) local_unnamed_addr #3

; Function Attrs: argmemonly mustprogress nofree nosync nounwind willreturn
declare void @llvm.lifetime.end.p0i8(i64 immarg, i8* nocapture) #1

; Function Attrs: nofree nounwind
declare noundef i32 @puts(i8* nocapture noundef readonly) local_unnamed_addr #4


!llvm.module.flags = !{!0, !1, !2, !3}
!llvm.ident = !{!4}

!0 = !{i32 1, !"wchar_size", i32 4}
!1 = !{i32 7, !"PIC Level", i32 2}
!2 = !{i32 7, !"PIE Level", i32 2}
!3 = !{i32 7, !"uwtable", i32 1}
!4 = !{!"clang version 13.0.0"}
!5 = !{!6, !6, i64 0}
!6 = !{!"omnipotent char", !7, i64 0}
!7 = !{!"Simple C/C++ TBAA"}
!8 = distinct !{!8, !9}
!9 = !{!"llvm.loop.mustprogress"}
!10 = distinct !{!10, !9}
!11 = distinct !{!11, !9}
!12 = !{!13, !13, i64 0}
!13 = !{!"double", !6, i64 0}
